target datalayout = "e-m:e-p270:32:32-p271:32:32-p272:64:64-i64:64-i128:128-f80:128-n8:16:32:64-S128"
target triple = "x86_64-pc-linux-gnu"

%"class.cvc5::internal::Sequence" = type { %"class.std::unique_ptr", %"class.std::vector" }
%"class.std::unique_ptr" = type { %"struct.std::__uniq_ptr_data" }
%"struct.std::__uniq_ptr_data" = type { %"class.std::__uniq_ptr_impl" }
%"class.std::__uniq_ptr_impl" = type { %"class.std::tuple" }
%"class.std::tuple" = type { %"struct.std::_Tuple_impl" }
%"struct.std::_Tuple_impl" = type { %"struct.std::_Head_base.1" }
%"struct.std::_Head_base.1" = type { ptr }
%"class.std::vector" = type { %"struct.std::_Vector_base" }
%"struct.std::_Vector_base" = type { %"struct.std::_Vector_base<cvc5::internal::NodeTemplate<true>, std::allocator<cvc5::internal::NodeTemplate<true>>>::_Vector_impl" }
%"struct.std::_Vector_base<cvc5::internal::NodeTemplate<true>, std::allocator<cvc5::internal::NodeTemplate<true>>>::_Vector_impl" = type { %"struct.std::_Vector_base<cvc5::internal::NodeTemplate<true>, std::allocator<cvc5::internal::NodeTemplate<true>>>::_Vector_impl_data" }
%"struct.std::_Vector_base<cvc5::internal::NodeTemplate<true>, std::allocator<cvc5::internal::NodeTemplate<true>>>::_Vector_impl_data" = type { ptr, ptr, ptr }
%"class.cvc5::internal::NodeTemplate" = type { ptr }

; Function Attrs: inlinehint mustprogress nounwind uwtable
define linkonce_odr hidden void @_ZNK4cvc58internal12NodeTemplateILb1EE21assertTNodeNotExpiredEv(ptr noundef nonnull align 8 dereferenceable(8) %0) #9 comdat align 2 {
  %2 = alloca ptr, align 8
  store ptr %0, ptr %2, align 8, !tbaa !25
  ret void
}

; Function Attrs: mustprogress nounwind uwtable
define linkonce_odr hidden noundef nonnull align 8 dereferenceable(8) ptr @_ZNKSt6vectorIN4cvc58internal12NodeTemplateILb1EEESaIS3_EEixEm(ptr noundef nonnull align 8 dereferenceable(24) %0, i64 noundef %1) #8 comdat align 2 {
  %3 = alloca ptr, align 8
  %4 = alloca i64, align 8
  store ptr %0, ptr %3, align 8, !tbaa !10
  store i64 %1, ptr %4, align 8, !tbaa !23
  %5 = load ptr, ptr %3, align 8
  %6 = getelementptr inbounds nuw %"struct.std::_Vector_base", ptr %5, i32 0, i32 0
  %7 = getelementptr inbounds nuw %"struct.std::_Vector_base<cvc5::internal::NodeTemplate<true>, std::allocator<cvc5::internal::NodeTemplate<true>>>::_Vector_impl_data", ptr %6, i32 0, i32 0
  %8 = load ptr, ptr %7, align 8, !tbaa !17
  %9 = load i64, ptr %4, align 8, !tbaa !23
  %10 = getelementptr inbounds nuw %"class.cvc5::internal::NodeTemplate", ptr %8, i64 %9
  ret ptr %10
}

; Function Attrs: mustprogress nounwind uwtable
define linkonce_odr hidden noundef i64 @_ZNKSt6vectorIN4cvc58internal12NodeTemplateILb1EEESaIS3_EE4sizeEv(ptr noundef nonnull align 8 dereferenceable(24) %0) #8 comdat align 2 {
  %2 = alloca ptr, align 8
  store ptr %0, ptr %2, align 8, !tbaa !10
  %3 = load ptr, ptr %2, align 8
  %4 = getelementptr inbounds nuw %"struct.std::_Vector_base", ptr %3, i32 0, i32 0
  %5 = getelementptr inbounds nuw %"struct.std::_Vector_base<cvc5::internal::NodeTemplate<true>, std::allocator<cvc5::internal::NodeTemplate<true>>>::_Vector_impl_data", ptr %4, i32 0, i32 1
  %6 = load ptr, ptr %5, align 8, !tbaa !20
  %7 = getelementptr inbounds nuw %"struct.std::_Vector_base", ptr %3, i32 0, i32 0
  %8 = getelementptr inbounds nuw %"struct.std::_Vector_base<cvc5::internal::NodeTemplate<true>, std::allocator<cvc5::internal::NodeTemplate<true>>>::_Vector_impl_data", ptr %7, i32 0, i32 0
  %9 = load ptr, ptr %8, align 8, !tbaa !17
  %10 = ptrtoint ptr %6 to i64
  %11 = ptrtoint ptr %9 to i64
  %12 = sub i64 %10, %11
  %13 = sdiv exact i64 %12, 8
  ret i64 %13
}

; Function Attrs: mustprogress uwtable
define linkonce_odr hidden noundef zeroext i1 @_ZNK4cvc58internal12NodeTemplateILb1EEneILb1EEEbRKNS1_IXT_EEE(ptr noundef nonnull align 8 dereferenceable(8) %0, ptr noundef nonnull align 8 dereferenceable(8) %1) #4 comdat align 2 {
  %3 = alloca ptr, align 8
  %4 = alloca ptr, align 8
  store ptr %0, ptr %3, align 8, !tbaa !25
  store ptr %1, ptr %4, align 8, !tbaa !25
  %5 = load ptr, ptr %3, align 8
  call void @_ZNK4cvc58internal12NodeTemplateILb1EE21assertTNodeNotExpiredEv(ptr noundef nonnull align 8 dereferenceable(8) %5)
  %6 = load ptr, ptr %4, align 8, !tbaa !25
  call void @_ZNK4cvc58internal12NodeTemplateILb1EE21assertTNodeNotExpiredEv(ptr noundef nonnull align 8 dereferenceable(8) %6)
  %7 = getelementptr inbounds nuw %"class.cvc5::internal::NodeTemplate", ptr %5, i32 0, i32 0
  %8 = load ptr, ptr %7, align 8, !tbaa !29
  %9 = load ptr, ptr %4, align 8, !tbaa !25
  %10 = getelementptr inbounds nuw %"class.cvc5::internal::NodeTemplate", ptr %9, i32 0, i32 0
  %11 = load ptr, ptr %10, align 8, !tbaa !29
  %12 = icmp ne ptr %8, %11
  ret i1 %12
}

; Function Attrs: mustprogress nounwind uwtable
define hidden noundef nonnull align 8 dereferenceable(8) ptr @_ZNK4cvc58internal8Sequence3nthEm(ptr noundef nonnull align 8 dereferenceable(32) %0, i64 noundef %1) #8 align 2 {
  %3 = alloca ptr, align 8
  %4 = alloca i64, align 8
  store ptr %0, ptr %3, align 8, !tbaa !3
  store i64 %1, ptr %4, align 8, !tbaa !23
  %5 = load ptr, ptr %3, align 8
  %6 = getelementptr inbounds nuw %"class.cvc5::internal::Sequence", ptr %5, i32 0, i32 1
  %7 = load i64, ptr %4, align 8, !tbaa !23
  %8 = call noundef nonnull align 8 dereferenceable(8) ptr @_ZNKSt6vectorIN4cvc58internal12NodeTemplateILb1EEESaIS3_EEixEm(ptr noundef nonnull align 8 dereferenceable(24) %6, i64 noundef %7) #3
  ret ptr %8
}

; Function Attrs: mustprogress nounwind uwtable
define hidden noundef i64 @_ZNK4cvc58internal8Sequence4sizeEv(ptr noundef nonnull align 8 dereferenceable(32) %0) #8 align 2 {
  %2 = alloca ptr, align 8
  store ptr %0, ptr %2, align 8, !tbaa !3
  %3 = load ptr, ptr %2, align 8
  %4 = getelementptr inbounds nuw %"class.cvc5::internal::Sequence", ptr %3, i32 0, i32 1
  %5 = call noundef i64 @_ZNKSt6vectorIN4cvc58internal12NodeTemplateILb1EEESaIS3_EE4sizeEv(ptr noundef nonnull align 8 dereferenceable(24) %4) #3
  ret i64 %5
}

; Function Attrs: mustprogress uwtable
define hidden noundef zeroext i1 @_ZNK4cvc58internal8Sequence8rstrncmpERKS1_m(ptr noundef nonnull align 8 dereferenceable(32) %0, ptr noundef nonnull align 8 dereferenceable(32) %1, i64 noundef %2) #4 align 2 {
  %4 = alloca i1, align 1
  %5 = alloca ptr, align 8
  %6 = alloca ptr, align 8
  %7 = alloca i64, align 8
  %8 = alloca i64, align 8
  %9 = alloca i64, align 8
  %10 = alloca i32, align 4
  %11 = alloca i64, align 8
  store ptr %0, ptr %5, align 8, !tbaa !3
  store ptr %1, ptr %6, align 8, !tbaa !3
  store i64 %2, ptr %7, align 8, !tbaa !23
  %12 = load ptr, ptr %5, align 8
  call void @llvm.lifetime.start.p0(i64 8, ptr %8) #3
  %13 = call noundef i64 @_ZNK4cvc58internal8Sequence4sizeEv(ptr noundef nonnull align 8 dereferenceable(32) %12)
  %14 = load ptr, ptr %6, align 8, !tbaa !3
  %15 = call noundef i64 @_ZNK4cvc58internal8Sequence4sizeEv(ptr noundef nonnull align 8 dereferenceable(32) %14)
  %16 = icmp uge i64 %13, %15
  br i1 %16, label %17, label %19

17:                                               ; preds = %3
  %18 = call noundef i64 @_ZNK4cvc58internal8Sequence4sizeEv(ptr noundef nonnull align 8 dereferenceable(32) %12)
  br label %22

19:                                               ; preds = %3
  %20 = load ptr, ptr %6, align 8, !tbaa !3
  %21 = call noundef i64 @_ZNK4cvc58internal8Sequence4sizeEv(ptr noundef nonnull align 8 dereferenceable(32) %20)
  br label %22

22:                                               ; preds = %19, %17
  %23 = phi i64 [ %18, %17 ], [ %21, %19 ]
  store i64 %23, ptr %8, align 8, !tbaa !23
  call void @llvm.lifetime.start.p0(i64 8, ptr %9) #3
  %24 = call noundef i64 @_ZNK4cvc58internal8Sequence4sizeEv(ptr noundef nonnull align 8 dereferenceable(32) %12)
  %25 = load ptr, ptr %6, align 8, !tbaa !3
  %26 = call noundef i64 @_ZNK4cvc58internal8Sequence4sizeEv(ptr noundef nonnull align 8 dereferenceable(32) %25)
  %27 = icmp ule i64 %24, %26
  br i1 %27, label %28, label %30

28:                                               ; preds = %22
  %29 = call noundef i64 @_ZNK4cvc58internal8Sequence4sizeEv(ptr noundef nonnull align 8 dereferenceable(32) %12)
  br label %33

30:                                               ; preds = %22
  %31 = load ptr, ptr %6, align 8, !tbaa !3
  %32 = call noundef i64 @_ZNK4cvc58internal8Sequence4sizeEv(ptr noundef nonnull align 8 dereferenceable(32) %31)
  br label %33

33:                                               ; preds = %30, %28
  %34 = phi i64 [ %29, %28 ], [ %32, %30 ]
  store i64 %34, ptr %9, align 8, !tbaa !23
  %35 = load i64, ptr %7, align 8, !tbaa !23
  %36 = load i64, ptr %9, align 8, !tbaa !23
  %37 = icmp ugt i64 %35, %36
  br i1 %37, label %38, label %45

38:                                               ; preds = %33
  %39 = load i64, ptr %8, align 8, !tbaa !23
  %40 = load i64, ptr %9, align 8, !tbaa !23
  %41 = icmp ne i64 %39, %40
  br i1 %41, label %42, label %43

42:                                               ; preds = %38
  store i1 false, ptr %4, align 1
  store i32 1, ptr %10, align 4
  br label %73

43:                                               ; preds = %38
  %44 = load i64, ptr %9, align 8, !tbaa !23
  store i64 %44, ptr %7, align 8, !tbaa !23
  br label %45

45:                                               ; preds = %43, %33
  call void @llvm.lifetime.start.p0(i64 8, ptr %11) #3
  store i64 0, ptr %11, align 8, !tbaa !23
  br label %46

46:                                               ; preds = %67, %45
  %47 = load i64, ptr %11, align 8, !tbaa !23
  %48 = load i64, ptr %7, align 8, !tbaa !23
  %49 = icmp ult i64 %47, %48
  br i1 %49, label %51, label %50

50:                                               ; preds = %46
  store i32 2, ptr %10, align 4
  br label %70

51:                                               ; preds = %46
  %52 = call noundef i64 @_ZNK4cvc58internal8Sequence4sizeEv(ptr noundef nonnull align 8 dereferenceable(32) %12)
  %53 = load i64, ptr %11, align 8, !tbaa !23
  %54 = sub i64 %52, %53
  %55 = sub i64 %54, 1
  %56 = call noundef nonnull align 8 dereferenceable(8) ptr @_ZNK4cvc58internal8Sequence3nthEm(ptr noundef nonnull align 8 dereferenceable(32) %12, i64 noundef %55)
  %57 = load ptr, ptr %6, align 8, !tbaa !3
  %58 = load ptr, ptr %6, align 8, !tbaa !3
  %59 = call noundef i64 @_ZNK4cvc58internal8Sequence4sizeEv(ptr noundef nonnull align 8 dereferenceable(32) %58)
  %60 = load i64, ptr %11, align 8, !tbaa !23
  %61 = sub i64 %59, %60
  %62 = sub i64 %61, 1
  %63 = call noundef nonnull align 8 dereferenceable(8) ptr @_ZNK4cvc58internal8Sequence3nthEm(ptr noundef nonnull align 8 dereferenceable(32) %57, i64 noundef %62)
  %64 = call noundef zeroext i1 @_ZNK4cvc58internal12NodeTemplateILb1EEneILb1EEEbRKNS1_IXT_EEE(ptr noundef nonnull align 8 dereferenceable(8) %56, ptr noundef nonnull align 8 dereferenceable(8) %63)
  br i1 %64, label %65, label %66

65:                                               ; preds = %51
  store i1 false, ptr %4, align 1
  store i32 1, ptr %10, align 4
  br label %70

66:                                               ; preds = %51
  br label %67

67:                                               ; preds = %66
  %68 = load i64, ptr %11, align 8, !tbaa !23
  %69 = add i64 %68, 1
  store i64 %69, ptr %11, align 8, !tbaa !23
  br label %46, !llvm.loop !39

70:                                               ; preds = %65, %50
  call void @llvm.lifetime.end.p0(i64 8, ptr %11) #3
  %71 = load i32, ptr %10, align 4
  switch i32 %71, label %73 [
    i32 2, label %72
  ]

72:                                               ; preds = %70
  store i1 true, ptr %4, align 1
  store i32 1, ptr %10, align 4
  br label %73

73:                                               ; preds = %72, %70, %42
  call void @llvm.lifetime.end.p0(i64 8, ptr %9) #3
  call void @llvm.lifetime.end.p0(i64 8, ptr %8) #3
  %74 = load i1, ptr %4, align 1
  ret i1 %74
}