; Function Attrs: mustprogress nofree norecurse nosync nounwind willreturn memory(read, inaccessiblemem: none) uwtable
define hidden noundef zeroext i1 @_ZNK4cvc58internal8Sequence8rstrncmpERKS1_m(ptr noundef nonnull readonly align 8 captures(none) dereferenceable(32) %0, ptr noundef nonnull readonly align 8 captures(none) dereferenceable(32) %1, i64 noundef %2) local_unnamed_addr #9 align 2 {
  %4 = getelementptr inbounds nuw i8, ptr %0, i64 8
  %5 = getelementptr inbounds nuw i8, ptr %0, i64 16
  %6 = load ptr, ptr %5, align 8, !tbaa !13
  %7 = load ptr, ptr %4, align 8, !tbaa !16
  %8 = ptrtoint ptr %6 to i64
  %9 = ptrtoint ptr %7 to i64
  %10 = sub i64 %8, %9
  %11 = ashr exact i64 %10, 3
  %12 = getelementptr inbounds nuw i8, ptr %1, i64 8
  %13 = getelementptr inbounds nuw i8, ptr %1, i64 16
  %14 = load ptr, ptr %13, align 8, !tbaa !13
  %15 = load ptr, ptr %12, align 8, !tbaa !16
  %16 = ptrtoint ptr %14 to i64
  %17 = ptrtoint ptr %15 to i64
  %18 = sub i64 %16, %17
  %19 = ashr exact i64 %18, 3
  %20 = tail call i64 @llvm.umin.i64(i64 %11, i64 %19)
  %21 = icmp ugt i64 %2, %20
  br i1 %21, label %22, label %23

22:                                               ; preds = %3
  %.not24 = icmp eq i64 %11, %19
  br i1 %.not24, label %23, label %.loopexit

23:                                               ; preds = %22, %3
  %.020 = phi i64 [ %2, %3 ], [ %20, %22 ]
  %.not2527 = icmp eq i64 %.020, 0
  br i1 %.not2527, label %.loopexit, label %.lr.ph

.lr.ph:                                           ; preds = %23
  %24 = getelementptr i8, ptr %7, i64 %10
  %25 = getelementptr i8, ptr %15, i64 %18
  br label %26

26:                                               ; preds = %26, %.lr.ph
  %.028 = phi i64 [ 0, %.lr.ph ], [ %32, %26 ]
  %27 = xor i64 %.028, -1
  %28 = getelementptr %"class.cvc5::internal::NodeTemplate", ptr %24, i64 %27
  %29 = getelementptr %"class.cvc5::internal::NodeTemplate", ptr %25, i64 %27
  %30 = load ptr, ptr %28, align 8, !tbaa !19
  %31 = load ptr, ptr %29, align 8, !tbaa !19
  %.not = icmp eq ptr %30, %31
  %32 = add nuw i64 %.028, 1
  %exitcond.not = icmp ne i64 %32, %.020
  %or.cond.not = select i1 %.not, i1 %exitcond.not, i1 false
  br i1 %or.cond.not, label %26, label %.loopexit, !llvm.loop !28

.loopexit:                                        ; preds = %26, %23, %22
  %.019 = phi i1 [ false, %22 ], [ true, %23 ], [ %.not, %26 ]
  ret i1 %.019
}